; Function Attrs: null_pointer_is_valid sspstrong uwtable
define internal void @dissect_pfcp_alternative_smf_ip_address(ptr noundef %0, ptr noundef %1, ptr noundef %2, ptr noundef %3, i16 noundef zeroext %4, i8 zeroext %5, ptr readnone captures(none) %6) #0 {
  %8 = alloca i64, align 8
  call void @llvm.lifetime.start.p0(i64 8, ptr nonnull %8) #15
  call void @proto_tree_add_bitmask_list_ret_uint64(ptr noundef %2, ptr noundef %0, i32 noundef 0, i32 noundef 1, ptr noundef nonnull @dissect_pfcp_alternative_smf_ip_address.pfcp_alternative_smf_ip_address_flags, i32 noundef 0, ptr noundef nonnull %8)
  %9 = load i64, ptr %8, align 8
  %10 = and i64 %9, 2
  %.not = icmp eq i64 %10, 0
  br i1 %.not, label %17, label %11

11:                                               ; preds = %7
  %12 = load i32, ptr @hf_pfcp_alternative_smf_ip_address_ipv4, align 4
  %13 = call ptr @proto_tree_add_item(ptr noundef %2, i32 noundef %12, ptr noundef %0, i32 noundef 1, i32 noundef 4, i32 noundef 0)
  %14 = getelementptr inbounds nuw i8, ptr %1, i64 408
  %15 = load ptr, ptr %14, align 8
  %16 = call ptr @tvb_address_to_str(ptr noundef %15, ptr noundef %0, i32 noundef 2, i32 noundef 1)
  call void (ptr, ptr, ...) @proto_item_append_text(ptr noundef %3, ptr noundef nonnull @.str.2656, ptr noundef %16)
  %.pre = load i64, ptr %8, align 8
  br label %17

17:                                               ; preds = %11, %7
  %18 = phi i64 [ %.pre, %11 ], [ %9, %7 ]
  %.0 = phi i32 [ 5, %11 ], [ 1, %7 ]
  %19 = and i64 %18, 1
  %.not25 = icmp eq i64 %19, 0
  br i1 %.not25, label %27, label %20

20:                                               ; preds = %17
  %21 = load i32, ptr @hf_pfcp_alternative_smf_ip_address_ipv6, align 4
  %22 = call ptr @proto_tree_add_item(ptr noundef %2, i32 noundef %21, ptr noundef %0, i32 noundef %.0, i32 noundef 16, i32 noundef 0)
  %23 = getelementptr inbounds nuw i8, ptr %1, i64 408
  %24 = load ptr, ptr %23, align 8
  %25 = call ptr @tvb_address_to_str(ptr noundef %24, ptr noundef %0, i32 noundef 3, i32 noundef %.0)
  call void (ptr, ptr, ...) @proto_item_append_text(ptr noundef %3, ptr noundef nonnull @.str.2657, ptr noundef %25)
  %26 = or disjoint i32 %.0, 16
  br label %27

27:                                               ; preds = %20, %17
  %.1 = phi i32 [ %26, %20 ], [ %.0, %17 ]
  %28 = zext i16 %4 to i32
  %29 = icmp samesign ult i32 %.1, %28
  br i1 %29, label %30, label %32

30:                                               ; preds = %27
  %31 = call ptr @proto_tree_add_expert(ptr noundef %2, ptr noundef %1, ptr noundef nonnull @ei_pfcp_ie_data_not_decoded, ptr noundef %0, i32 noundef %.1, i32 noundef -1)
  br label %32

32:                                               ; preds = %30, %27
  call void @llvm.lifetime.end.p0(i64 8, ptr nonnull %8) #15
  ret void
}